target datalayout = "e-m:e-p270:32:32-p271:32:32-p272:64:64-i64:64-i128:128-f80:128-n8:16:32:64-S128"
target triple = "x86_64-pc-linux-gnu"

%"class.std::__cxx11::basic_string" = type { %"struct.std::__cxx11::basic_string<char>::_Alloc_hider", i64, %union.anon }
%"struct.std::__cxx11::basic_string<char>::_Alloc_hider" = type { ptr }
%union.anon = type { i64, [8 x i8] }
%"class.cvc5::parser::Cmd" = type { ptr, ptr }
%"class.cvc5::parser::DeclarationDefinitionCommand" = type { %"class.cvc5::parser::Cmd", %"class.std::__cxx11::basic_string" }
%"class.cvc5::parser::DeclareSortCommand" = type { %"class.cvc5::parser::DeclarationDefinitionCommand", i64 }

; Function Attrs: mustprogress uwtable
define void @_ZNK4cvc56parser18DeclareSortCommand8toStreamERSo(ptr noundef nonnull align 8 dereferenceable(56) %0, ptr noundef nonnull align 8 dereferenceable(8) %1) unnamed_addr #4 align 2 {
  %3 = alloca ptr, align 8
  %4 = alloca ptr, align 8
  store ptr %0, ptr %3, align 8, !tbaa !223
  store ptr %1, ptr %4, align 8, !tbaa !14
  %5 = load ptr, ptr %3, align 8
  %6 = load ptr, ptr %4, align 8, !tbaa !14
  %7 = call noundef ptr @_ZN4cvc58internal7Printer10getPrinterERSo(ptr noundef nonnull align 8 dereferenceable(8) %6)
  %8 = load ptr, ptr %4, align 8, !tbaa !14
  %9 = getelementptr inbounds nuw %"class.cvc5::parser::DeclarationDefinitionCommand", ptr %5, i32 0, i32 1
  %10 = getelementptr inbounds nuw %"class.cvc5::parser::DeclareSortCommand", ptr %5, i32 0, i32 1
  %11 = load i64, ptr %10, align 8, !tbaa !225
  %12 = load ptr, ptr %7, align 8, !tbaa !12
  %13 = getelementptr inbounds ptr, ptr %12, i64 22
  %14 = load ptr, ptr %13, align 8
  call void %14(ptr noundef nonnull align 8 dereferenceable(8) %7, ptr noundef nonnull align 8 dereferenceable(8) %8, ptr noundef nonnull align 8 dereferenceable(32) %9, i64 noundef %11)
  ret void
}